target datalayout = "e-m:e-p270:32:32-p271:32:32-p272:64:64-i64:64-i128:128-f80:128-n8:16:32:64-S128"
target triple = "x86_64-pc-linux-gnu"

%struct._zend_stack = type { i32, i32, i32, ptr }

; Function Attrs: nounwind uwtable
define i32 @zend_stack_push(ptr noundef %0, ptr noundef %1) #0 {
  %3 = alloca ptr, align 8
  %4 = alloca ptr, align 8
  store ptr %0, ptr %3, align 8
  store ptr %1, ptr %4, align 8
  %5 = load ptr, ptr %3, align 8
  %6 = getelementptr inbounds %struct._zend_stack, ptr %5, i32 0, i32 1
  %7 = load i32, ptr %6, align 4
  %8 = load ptr, ptr %3, align 8
  %9 = getelementptr inbounds %struct._zend_stack, ptr %8, i32 0, i32 2
  %10 = load i32, ptr %9, align 8
  %11 = icmp sge i32 %7, %10
  br i1 %11, label %12, label %31

12:                                               ; preds = %2
  %13 = load ptr, ptr %3, align 8
  %14 = getelementptr inbounds %struct._zend_stack, ptr %13, i32 0, i32 2
  %15 = load i32, ptr %14, align 8
  %16 = add nsw i32 %15, 16
  store i32 %16, ptr %14, align 8
  %17 = load ptr, ptr %3, align 8
  %18 = getelementptr inbounds %struct._zend_stack, ptr %17, i32 0, i32 3
  %19 = load ptr, ptr %18, align 8
  %20 = load ptr, ptr %3, align 8
  %21 = getelementptr inbounds %struct._zend_stack, ptr %20, i32 0, i32 0
  %22 = load i32, ptr %21, align 8
  %23 = sext i32 %22 to i64
  %24 = load ptr, ptr %3, align 8
  %25 = getelementptr inbounds %struct._zend_stack, ptr %24, i32 0, i32 2
  %26 = load i32, ptr %25, align 8
  %27 = sext i32 %26 to i64
  %28 = call ptr @_safe_erealloc(ptr noundef %19, i64 noundef %23, i64 noundef %27, i64 noundef 0)
  %29 = load ptr, ptr %3, align 8
  %30 = getelementptr inbounds %struct._zend_stack, ptr %29, i32 0, i32 3
  store ptr %28, ptr %30, align 8
  br label %31

31:                                               ; preds = %12, %2
  %32 = load ptr, ptr %3, align 8
  %33 = getelementptr inbounds %struct._zend_stack, ptr %32, i32 0, i32 3
  %34 = load ptr, ptr %33, align 8
  %35 = load ptr, ptr %3, align 8
  %36 = getelementptr inbounds %struct._zend_stack, ptr %35, i32 0, i32 0
  %37 = load i32, ptr %36, align 8
  %38 = load ptr, ptr %3, align 8
  %39 = getelementptr inbounds %struct._zend_stack, ptr %38, i32 0, i32 1
  %40 = load i32, ptr %39, align 4
  %41 = mul nsw i32 %37, %40
  %42 = sext i32 %41 to i64
  %43 = getelementptr inbounds i8, ptr %34, i64 %42
  %44 = load ptr, ptr %4, align 8
  %45 = load ptr, ptr %3, align 8
  %46 = getelementptr inbounds %struct._zend_stack, ptr %45, i32 0, i32 0
  %47 = load i32, ptr %46, align 8
  %48 = sext i32 %47 to i64
  call void @llvm.memcpy.p0.p0.i64(ptr align 1 %43, ptr align 1 %44, i64 %48, i1 false)
  %49 = load ptr, ptr %3, align 8
  %50 = getelementptr inbounds %struct._zend_stack, ptr %49, i32 0, i32 1
  %51 = load i32, ptr %50, align 4
  %52 = add nsw i32 %51, 1
  store i32 %52, ptr %50, align 4
  ret i32 %51
}