; Function Attrs: nounwind uwtable
define i32 @zend_stack_push(ptr nocapture noundef %0, ptr nocapture noundef readonly %1) local_unnamed_addr #1 {
  %3 = getelementptr inbounds i8, ptr %0, i64 4
  %4 = load i32, ptr %3, align 4
  %5 = getelementptr inbounds i8, ptr %0, i64 8
  %6 = load i32, ptr %5, align 8
  %.not = icmp slt i32 %4, %6
  br i1 %.not, label %._crit_edge, label %7

._crit_edge:                                      ; preds = %2
  %.phi.trans.insert = getelementptr inbounds i8, ptr %0, i64 16
  %.pre = load ptr, ptr %.phi.trans.insert, align 8
  br label %15

7:                                                ; preds = %2
  %8 = add nsw i32 %6, 16
  store i32 %8, ptr %5, align 8
  %9 = getelementptr inbounds i8, ptr %0, i64 16
  %10 = load ptr, ptr %9, align 8
  %11 = load i32, ptr %0, align 8
  %12 = sext i32 %11 to i64
  %13 = sext i32 %8 to i64
  %14 = tail call ptr @_safe_erealloc(ptr noundef %10, i64 noundef %12, i64 noundef %13, i64 noundef 0) #7
  store ptr %14, ptr %9, align 8
  %.pre13 = load i32, ptr %3, align 4
  br label %15

15:                                               ; preds = %._crit_edge, %7
  %16 = phi i32 [ %4, %._crit_edge ], [ %.pre13, %7 ]
  %17 = phi ptr [ %.pre, %._crit_edge ], [ %14, %7 ]
  %18 = load i32, ptr %0, align 8
  %19 = mul nsw i32 %16, %18
  %20 = sext i32 %19 to i64
  %21 = getelementptr inbounds i8, ptr %17, i64 %20
  %22 = sext i32 %18 to i64
  tail call void @llvm.memcpy.p0.p0.i64(ptr align 1 %21, ptr align 1 %1, i64 %22, i1 false)
  %23 = load i32, ptr %3, align 4
  %24 = add nsw i32 %23, 1
  store i32 %24, ptr %3, align 4
  ret i32 %23
}